; Function Attrs: mustprogress nounwind uwtable
define hidden void @_ZNK23ShenandoahCollectionSet8print_onEP12outputStream(ptr nocapture noundef nonnull readonly align 8 dereferenceable(256) %0, ptr noundef nonnull %1) local_unnamed_addr #1 align 2 {
  %3 = getelementptr inbounds i8, ptr %0, i64 112
  %4 = load i64, ptr %3, align 8
  tail call void (ptr, ptr, ...) @_ZN12outputStream8print_crEPKcz(ptr noundef nonnull align 8 dereferenceable(56) %1, ptr noundef nonnull @.str.5, i64 noundef %4) #9
  %5 = getelementptr inbounds i8, ptr %0, i64 88
  %6 = load ptr, ptr %5, align 8
  %7 = getelementptr inbounds i8, ptr %6, i64 544
  %8 = load i64, ptr %7, align 8
  %.not = icmp eq i64 %8, 0
  br i1 %.not, label %._crit_edge, label %.lr.ph

.lr.ph:                                           ; preds = %2
  %9 = getelementptr inbounds i8, ptr %0, i64 72
  br label %10

10:                                               ; preds = %.lr.ph, %20
  %11 = phi ptr [ %6, %.lr.ph ], [ %21, %20 ]
  %.06 = phi i64 [ 0, %.lr.ph ], [ %22, %20 ]
  %12 = load ptr, ptr %9, align 8
  %13 = getelementptr inbounds i8, ptr %12, i64 %.06
  %14 = load i8, ptr %13, align 1
  %15 = icmp eq i8 %14, 1
  br i1 %15, label %_ZNK14ShenandoahHeap10get_regionEm.exit, label %20

_ZNK14ShenandoahHeap10get_regionEm.exit:          ; preds = %10
  %16 = getelementptr inbounds i8, ptr %11, i64 552
  %17 = load ptr, ptr %16, align 8
  %18 = getelementptr inbounds ptr, ptr %17, i64 %.06
  %19 = load ptr, ptr %18, align 8
  tail call void @_ZNK20ShenandoahHeapRegion8print_onEP12outputStream(ptr noundef nonnull align 8 dereferenceable(96) %19, ptr noundef nonnull %1) #9
  %.pre = load ptr, ptr %5, align 8
  br label %20

20:                                               ; preds = %10, %_ZNK14ShenandoahHeap10get_regionEm.exit
  %21 = phi ptr [ %11, %10 ], [ %.pre, %_ZNK14ShenandoahHeap10get_regionEm.exit ]
  %22 = add nuw i64 %.06, 1
  %23 = getelementptr inbounds i8, ptr %21, i64 544
  %24 = load i64, ptr %23, align 8
  %25 = icmp ult i64 %22, %24
  br i1 %25, label %10, label %._crit_edge, !llvm.loop !10

._crit_edge:                                      ; preds = %20, %2
  ret void
}